target datalayout = "e-m:e-p270:32:32-p271:32:32-p272:64:64-i64:64-i128:128-f80:128-n8:16:32:64-S128"
target triple = "x86_64-pc-linux-gnu"

%struct.H5F_shared_t = type { ptr, ptr, ptr, i8, i32, i32, %struct.H5F_mtab_t, ptr, i8, i8, i64, i32, i32, i64, i64, ptr, ptr, %struct.H5AC_cache_config_t, %struct.H5AC_cache_image_config_t, i8, i8, ptr, i64, i32, i8, i64, i64, double, i64, i64, i64, i32, i32, i32, i8, i32, ptr, ptr, ptr, ptr, i8, i8, i8, i64, i64, ptr, ptr, i32, i64, i8, i32, i8, i64, i8, [13 x i32], [13 x i64], [13 x ptr], i8, i64, i64, [7 x i32], [7 x i32], %struct.H5F_blk_aggr_t, %struct.H5F_blk_aggr_t, i64, i64, %struct.H5F_meta_accum_t, i32, i32, [30 x ptr], %struct.H5F_object_flush_t, i8, ptr }
%struct.H5F_mtab_t = type { i32, i32, ptr }
%struct.H5AC_cache_config_t = type { i32, i8, i8, i8, [1025 x i8], i8, i8, i64, double, i64, i64, i64, i32, double, double, i8, i64, i32, double, double, i32, double, double, i8, i64, i32, i8, double, i64, i32 }
%struct.H5AC_cache_image_config_t = type { i32, i8, i8, i32 }
%struct.H5F_blk_aggr_t = type { i64, i64, i64, i64, i64 }
%struct.H5F_meta_accum_t = type { ptr, i64, i64, i64, i64, i64, i8 }
%struct.H5F_object_flush_t = type { ptr, ptr }
%struct.H5F_t = type { ptr, ptr, ptr, ptr, i32, ptr, i8, i8, ptr, i32 }

@.str = private unnamed_addr constant [99 x i8] c"generated/home/dtcxzyw/WorkSpace/Projects/compilers/llvm-opt-benchmark/bench/hdf5/hdf5/src/H5Fio.c\00", align 1
@H5E_IO_g = external global i64, align 8
@H5E_WRITEERROR_g = external global i64, align 8
@__func__.H5F_flush_tagged_metadata = private unnamed_addr constant [26 x i8] c"H5F_flush_tagged_metadata\00", align 1
@H5E_CACHE_g = external global i64, align 8
@H5E_CANTFLUSH_g = external global i64, align 8
@.str.8 = private unnamed_addr constant [32 x i8] c"unable to flush tagged metadata\00", align 1
@H5E_CANTRESET_g = external global i64, align 8
@.str.9 = private unnamed_addr constant [24 x i8] c"can't reset accumulator\00", align 1
@.str.10 = private unnamed_addr constant [23 x i8] c"low level flush failed\00", align 1

; Function Attrs: nounwind uwtable
define i32 @H5F_flush_tagged_metadata(ptr noundef %0, i64 noundef %1) #0 {
  %3 = alloca ptr, align 8
  %4 = alloca i64, align 8
  %5 = alloca i32, align 4
  %6 = alloca i8, align 1
  store ptr %0, ptr %3, align 8
  store i64 %1, ptr %4, align 8
  store i32 0, ptr %5, align 4
  store i8 0, ptr %6, align 1
  %7 = load ptr, ptr %3, align 8
  %8 = load i64, ptr %4, align 8
  %9 = call i32 @H5AC_flush_tagged_metadata(ptr noundef %7, i64 noundef %8)
  %10 = icmp slt i32 %9, 0
  br i1 %10, label %11, label %26

11:                                               ; preds = %2
  br label %12

12:                                               ; preds = %11
  br label %13

13:                                               ; preds = %12
  br label %14

14:                                               ; preds = %13
  %15 = load i64, ptr @H5E_CACHE_g, align 8
  %16 = load i64, ptr @H5E_CANTFLUSH_g, align 8
  %17 = call i32 (ptr, ptr, i32, i64, i64, ptr, ...) @H5E_printf_stack(ptr noundef @.str, ptr noundef @__func__.H5F_flush_tagged_metadata, i32 noundef 422, i64 noundef %15, i64 noundef %16, ptr noundef @.str.8)
  br label %18

18:                                               ; preds = %14
  store i8 1, ptr %6, align 1
  %19 = load i8, ptr %6, align 1
  %20 = trunc i8 %19 to i1
  %21 = zext i1 %20 to i8
  store i8 %21, ptr %6, align 1
  br label %22

22:                                               ; preds = %18
  br label %23

23:                                               ; preds = %22
  store i32 -1, ptr %5, align 4
  br label %71

24:                                               ; No predecessors!
  br label %25

25:                                               ; preds = %24
  br label %26

26:                                               ; preds = %25, %2
  %27 = load ptr, ptr %3, align 8
  %28 = getelementptr inbounds %struct.H5F_t, ptr %27, i32 0, i32 2
  %29 = load ptr, ptr %28, align 8
  %30 = call i32 @H5F__accum_reset(ptr noundef %29, i1 noundef zeroext true)
  %31 = icmp slt i32 %30, 0
  br i1 %31, label %32, label %47

32:                                               ; preds = %26
  br label %33

33:                                               ; preds = %32
  br label %34

34:                                               ; preds = %33
  br label %35

35:                                               ; preds = %34
  %36 = load i64, ptr @H5E_IO_g, align 8
  %37 = load i64, ptr @H5E_CANTRESET_g, align 8
  %38 = call i32 (ptr, ptr, i32, i64, i64, ptr, ...) @H5E_printf_stack(ptr noundef @.str, ptr noundef @__func__.H5F_flush_tagged_metadata, i32 noundef 426, i64 noundef %36, i64 noundef %37, ptr noundef @.str.9)
  br label %39

39:                                               ; preds = %35
  store i8 1, ptr %6, align 1
  %40 = load i8, ptr %6, align 1
  %41 = trunc i8 %40 to i1
  %42 = zext i1 %41 to i8
  store i8 %42, ptr %6, align 1
  br label %43

43:                                               ; preds = %39
  br label %44

44:                                               ; preds = %43
  store i32 -1, ptr %5, align 4
  br label %71

45:                                               ; No predecessors!
  br label %46

46:                                               ; preds = %45
  br label %47

47:                                               ; preds = %46, %26
  %48 = load ptr, ptr %3, align 8
  %49 = getelementptr inbounds %struct.H5F_t, ptr %48, i32 0, i32 2
  %50 = load ptr, ptr %49, align 8
  %51 = getelementptr inbounds %struct.H5F_shared_t, ptr %50, i32 0, i32 0
  %52 = load ptr, ptr %51, align 8
  %53 = call i32 @H5FD_flush(ptr noundef %52, i1 noundef zeroext false)
  %54 = icmp slt i32 %53, 0
  br i1 %54, label %55, label %70

55:                                               ; preds = %47
  br label %56

56:                                               ; preds = %55
  br label %57

57:                                               ; preds = %56
  br label %58

58:                                               ; preds = %57
  %59 = load i64, ptr @H5E_IO_g, align 8
  %60 = load i64, ptr @H5E_WRITEERROR_g, align 8
  %61 = call i32 (ptr, ptr, i32, i64, i64, ptr, ...) @H5E_printf_stack(ptr noundef @.str, ptr noundef @__func__.H5F_flush_tagged_metadata, i32 noundef 430, i64 noundef %59, i64 noundef %60, ptr noundef @.str.10)
  br label %62

62:                                               ; preds = %58
  store i8 1, ptr %6, align 1
  %63 = load i8, ptr %6, align 1
  %64 = trunc i8 %63 to i1
  %65 = zext i1 %64 to i8
  store i8 %65, ptr %6, align 1
  br label %66

66:                                               ; preds = %62
  br label %67

67:                                               ; preds = %66
  store i32 -1, ptr %5, align 4
  br label %71

68:                                               ; No predecessors!
  br label %69

69:                                               ; preds = %68
  br label %70

70:                                               ; preds = %69, %47
  br label %71

71:                                               ; preds = %70, %67, %44, %23
  %72 = load i32, ptr %5, align 4
  ret i32 %72
}