; Function Attrs: nounwind uwtable
define range(i32 -1, 1) i32 @H5F_flush_tagged_metadata(ptr noundef %0, i64 noundef %1) local_unnamed_addr #0 {
  %3 = tail call i32 @H5AC_flush_tagged_metadata(ptr noundef %0, i64 noundef %1) #2
  %4 = icmp slt i32 %3, 0
  br i1 %4, label %5, label %9

5:                                                ; preds = %2
  %6 = load i64, ptr @H5E_CACHE_g, align 8
  %7 = load i64, ptr @H5E_CANTFLUSH_g, align 8
  %8 = tail call i32 (ptr, ptr, i32, i64, i64, ptr, ...) @H5E_printf_stack(ptr noundef nonnull @.str, ptr noundef nonnull @__func__.H5F_flush_tagged_metadata, i32 noundef 422, i64 noundef %6, i64 noundef %7, ptr noundef nonnull @.str.8) #2
  br label %27

9:                                                ; preds = %2
  %10 = getelementptr inbounds i8, ptr %0, i64 16
  %11 = load ptr, ptr %10, align 8
  %12 = tail call i32 @H5F__accum_reset(ptr noundef %11, i1 noundef zeroext true) #2
  %13 = icmp slt i32 %12, 0
  br i1 %13, label %14, label %18

14:                                               ; preds = %9
  %15 = load i64, ptr @H5E_IO_g, align 8
  %16 = load i64, ptr @H5E_CANTRESET_g, align 8
  %17 = tail call i32 (ptr, ptr, i32, i64, i64, ptr, ...) @H5E_printf_stack(ptr noundef nonnull @.str, ptr noundef nonnull @__func__.H5F_flush_tagged_metadata, i32 noundef 426, i64 noundef %15, i64 noundef %16, ptr noundef nonnull @.str.9) #2
  br label %27

18:                                               ; preds = %9
  %19 = load ptr, ptr %10, align 8
  %20 = load ptr, ptr %19, align 8
  %21 = tail call i32 @H5FD_flush(ptr noundef %20, i1 noundef zeroext false) #2
  %22 = icmp slt i32 %21, 0
  br i1 %22, label %23, label %27

23:                                               ; preds = %18
  %24 = load i64, ptr @H5E_IO_g, align 8
  %25 = load i64, ptr @H5E_WRITEERROR_g, align 8
  %26 = tail call i32 (ptr, ptr, i32, i64, i64, ptr, ...) @H5E_printf_stack(ptr noundef nonnull @.str, ptr noundef nonnull @__func__.H5F_flush_tagged_metadata, i32 noundef 430, i64 noundef %24, i64 noundef %25, ptr noundef nonnull @.str.10) #2
  br label %27

27:                                               ; preds = %18, %23, %14, %5
  %.0 = phi i32 [ -1, %5 ], [ -1, %14 ], [ -1, %23 ], [ 0, %18 ]
  ret i32 %.0
}